__bss_start
_edata
_end
errorlog_prefix
gview
basic_seed
movie_version
gps
texture
init
mt_index
mt_cur_buffer
mt_virtual_buffer
mt_buffer
_ZGVZN16renderer_2d_base17tile_cache_lookupER14texture_fullidE6use_hw
gamemode
_fini
_init
_IO_stdin_used
_ZTV12viewscreenst
_ZTI12viewscreenst
_ZN17texture_handlerst5cleanEv
_Z10drawborderPKccS0_
_ZN12viewscreenst12key_conflictEl
_Z23dwarf_end_announcementsv
_Z19dwarf_remove_screenv
_Z19dwarf_option_screenv
_ZN12viewscreenst4helpEv
_Z10endroutinev
_Z8mainloopv
_Z17standardscrollingRSt3setIlSt4lessIlESaIlEERiiiij
_Z20process_object_linesR11textlinesstRSsS1_
_Z12beginroutinev
_ZN11flagarrayst8has_flagEl
_ZN11flagarrayst8add_flagEl
_ZNSt6vectorIP9pstringstSaIS1_EE13_M_insert_auxEN9__gnu_cxx17__normal_iteratorIPS1_S3_EERKS1_
_ZN12stringvectstD1Ev
_ZN12viewscreenst6resizeEii
_ZN12viewscreenst11movies_okayEv
_ZN12viewscreenst14is_save_screenEv
_ZNSt8_Rb_treeIllSt9_IdentityIlESt4lessIlESaIlEE8_M_eraseEPSt13_Rb_tree_nodeIlE
_ZStplIcSt11char_traitsIcESaIcEESbIT_T0_T1_ERKS6_S8_
_ZStplIcSt11char_traitsIcESaIcEESbIT_T0_T1_EPKS3_RKS6_
_ZN12stringvectst5cleanEv
_ZNSt6vectorIPcSaIS0_EE13_M_insert_auxEN9__gnu_cxx17__normal_iteratorIPS0_S2_EERKS0_
